target datalayout = "e-m:e-p270:32:32-p271:32:32-p272:64:64-i64:64-i128:128-f80:128-n8:16:32:64-S128"
target triple = "x86_64-pc-linux-gnu"

%struct.ident_t = type { i32, i32, i32, i32, ptr }

@1 = private unnamed_addr constant %struct.ident_t { i32 0, i32 514, i32 0, i32 22, ptr @0 }, align 8

; Function Attrs: alwaysinline norecurse nounwind uwtable
define internal void @_ZN4ncnnL13matmul_transbERKNS_3MatES2_RS0_RKNS_6OptionE.omp_outlined(ptr noalias noundef %0, ptr noalias noundef %1, ptr noundef nonnull align 4 dereferenceable(4) %2, ptr noundef nonnull align 8 dereferenceable(8) %3, ptr noundef nonnull align 4 dereferenceable(4) %4, ptr noundef nonnull align 8 dereferenceable(8) %5, ptr noundef nonnull align 4 dereferenceable(4) %6, ptr noundef nonnull align 8 dereferenceable(8) %7) #8 {
  %9 = alloca ptr, align 8
  %10 = alloca ptr, align 8
  %11 = alloca ptr, align 8
  %12 = alloca ptr, align 8
  %13 = alloca ptr, align 8
  %14 = alloca ptr, align 8
  %15 = alloca ptr, align 8
  %16 = alloca ptr, align 8
  %17 = alloca i32, align 4
  %18 = alloca i32, align 4
  %19 = alloca i32, align 4
  %20 = alloca i32, align 4
  %21 = alloca i32, align 4
  %22 = alloca i32, align 4
  %23 = alloca i32, align 4
  %24 = alloca i32, align 4
  %25 = alloca i32, align 4
  %26 = alloca ptr, align 8
  %27 = alloca ptr, align 8
  %28 = alloca i32, align 4
  %29 = alloca i32, align 4
  %30 = alloca ptr, align 8
  %31 = alloca float, align 4
  %32 = alloca i32, align 4
  store ptr %0, ptr %9, align 8, !tbaa !66
  store ptr %1, ptr %10, align 8, !tbaa !66
  store ptr %2, ptr %11, align 8, !tbaa !66
  store ptr %3, ptr %12, align 8, !tbaa !74
  store ptr %4, ptr %13, align 8, !tbaa !66
  store ptr %5, ptr %14, align 8, !tbaa !74
  store ptr %6, ptr %15, align 8, !tbaa !66
  store ptr %7, ptr %16, align 8, !tbaa !74
  %33 = load ptr, ptr %11, align 8, !tbaa !66
  %34 = load ptr, ptr %12, align 8, !tbaa !74
  %35 = load ptr, ptr %13, align 8, !tbaa !66
  %36 = load ptr, ptr %14, align 8, !tbaa !74
  %37 = load ptr, ptr %15, align 8, !tbaa !66
  %38 = load ptr, ptr %16, align 8, !tbaa !74
  call void @llvm.lifetime.start.p0(i64 4, ptr %17) #9
  call void @llvm.lifetime.start.p0(i64 4, ptr %18) #9
  %39 = load i32, ptr %33, align 4, !tbaa !38
  store i32 %39, ptr %18, align 4, !tbaa !38
  call void @llvm.lifetime.start.p0(i64 4, ptr %19) #9
  %40 = load i32, ptr %18, align 4, !tbaa !38
  %41 = sub nsw i32 %40, 0
  %42 = sdiv i32 %41, 1
  %43 = sub nsw i32 %42, 1
  store i32 %43, ptr %19, align 4, !tbaa !38
  call void @llvm.lifetime.start.p0(i64 4, ptr %20) #9
  store i32 0, ptr %20, align 4, !tbaa !38
  call void @llvm.lifetime.end.p0(i64 4, ptr %20) #9
  %44 = load i32, ptr %18, align 4, !tbaa !38
  %45 = icmp slt i32 0, %44
  br i1 %45, label %46, label %131

46:                                               ; preds = %8
  call void @llvm.lifetime.start.p0(i64 4, ptr %21) #9
  store i32 0, ptr %21, align 4, !tbaa !38
  call void @llvm.lifetime.start.p0(i64 4, ptr %22) #9
  %47 = load i32, ptr %19, align 4, !tbaa !38
  store i32 %47, ptr %22, align 4, !tbaa !38
  call void @llvm.lifetime.start.p0(i64 4, ptr %23) #9
  store i32 1, ptr %23, align 4, !tbaa !38
  call void @llvm.lifetime.start.p0(i64 4, ptr %24) #9
  store i32 0, ptr %24, align 4, !tbaa !38
  call void @llvm.lifetime.start.p0(i64 4, ptr %25) #9
  %48 = load ptr, ptr %9, align 8
  %49 = load i32, ptr %48, align 4, !tbaa !38
  call void @__kmpc_for_static_init_4(ptr @1, i32 %49, i32 34, ptr %24, ptr %21, ptr %22, ptr %23, i32 1, i32 1)
  %50 = load i32, ptr %22, align 4, !tbaa !38
  %51 = load i32, ptr %19, align 4, !tbaa !38
  %52 = icmp sgt i32 %50, %51
  br i1 %52, label %53, label %55

53:                                               ; preds = %46
  %54 = load i32, ptr %19, align 4, !tbaa !38
  br label %57

55:                                               ; preds = %46
  %56 = load i32, ptr %22, align 4, !tbaa !38
  br label %57

57:                                               ; preds = %55, %53
  %58 = phi i32 [ %54, %53 ], [ %56, %55 ]
  store i32 %58, ptr %22, align 4, !tbaa !38
  %59 = load i32, ptr %21, align 4, !tbaa !38
  store i32 %59, ptr %17, align 4, !tbaa !38
  br label %60

60:                                               ; preds = %124, %57
  %61 = load i32, ptr %17, align 4, !tbaa !38
  %62 = load i32, ptr %22, align 4, !tbaa !38
  %63 = icmp sle i32 %61, %62
  br i1 %63, label %65, label %64

64:                                               ; preds = %60
  br label %127

65:                                               ; preds = %60
  %66 = load i32, ptr %17, align 4, !tbaa !38
  %67 = mul nsw i32 %66, 1
  %68 = add nsw i32 0, %67
  store i32 %68, ptr %25, align 4, !tbaa !38
  call void @llvm.lifetime.start.p0(i64 8, ptr %26) #9
  %69 = load ptr, ptr %34, align 8, !tbaa !44
  %70 = load i32, ptr %25, align 4, !tbaa !38
  %71 = load i32, ptr %35, align 4, !tbaa !38
  %72 = mul nsw i32 %70, %71
  %73 = sext i32 %72 to i64
  %74 = getelementptr inbounds float, ptr %69, i64 %73
  store ptr %74, ptr %26, align 8, !tbaa !44
  call void @llvm.lifetime.start.p0(i64 8, ptr %27) #9
  %75 = load ptr, ptr %36, align 8, !tbaa !44
  %76 = load i32, ptr %25, align 4, !tbaa !38
  %77 = load i32, ptr %37, align 4, !tbaa !38
  %78 = mul nsw i32 %76, %77
  %79 = sext i32 %78 to i64
  %80 = getelementptr inbounds float, ptr %75, i64 %79
  store ptr %80, ptr %27, align 8, !tbaa !44
  call void @llvm.lifetime.start.p0(i64 4, ptr %28) #9
  store i32 0, ptr %28, align 4, !tbaa !38
  br label %81

81:                                               ; preds = %119, %65
  %82 = load i32, ptr %28, align 4, !tbaa !38
  %83 = load i32, ptr %37, align 4, !tbaa !38
  %84 = icmp slt i32 %82, %83
  br i1 %84, label %86, label %85

85:                                               ; preds = %81
  store i32 6, ptr %29, align 4
  call void @llvm.lifetime.end.p0(i64 4, ptr %28) #9
  br label %122

86:                                               ; preds = %81
  call void @llvm.lifetime.start.p0(i64 8, ptr %30) #9
  %87 = load ptr, ptr %38, align 8, !tbaa !44
  %88 = load i32, ptr %28, align 4, !tbaa !38
  %89 = load i32, ptr %35, align 4, !tbaa !38
  %90 = mul nsw i32 %88, %89
  %91 = sext i32 %90 to i64
  %92 = getelementptr inbounds float, ptr %87, i64 %91
  store ptr %92, ptr %30, align 8, !tbaa !44
  call void @llvm.lifetime.start.p0(i64 4, ptr %31) #9
  store float 0.000000e+00, ptr %31, align 4, !tbaa !46
  call void @llvm.lifetime.start.p0(i64 4, ptr %32) #9
  store i32 0, ptr %32, align 4, !tbaa !38
  br label %93

93:                                               ; preds = %112, %86
  %94 = load i32, ptr %32, align 4, !tbaa !38
  %95 = load i32, ptr %35, align 4, !tbaa !38
  %96 = icmp slt i32 %94, %95
  br i1 %96, label %98, label %97

97:                                               ; preds = %93
  store i32 9, ptr %29, align 4
  call void @llvm.lifetime.end.p0(i64 4, ptr %32) #9
  br label %115

98:                                               ; preds = %93
  %99 = load ptr, ptr %26, align 8, !tbaa !44
  %100 = load i32, ptr %32, align 4, !tbaa !38
  %101 = sext i32 %100 to i64
  %102 = getelementptr inbounds float, ptr %99, i64 %101
  %103 = load float, ptr %102, align 4, !tbaa !46
  %104 = load ptr, ptr %30, align 8, !tbaa !44
  %105 = load i32, ptr %32, align 4, !tbaa !38
  %106 = sext i32 %105 to i64
  %107 = getelementptr inbounds float, ptr %104, i64 %106
  %108 = load float, ptr %107, align 4, !tbaa !46
  %109 = fmul fast float %103, %108
  %110 = load float, ptr %31, align 4, !tbaa !46
  %111 = fadd fast float %110, %109
  store float %111, ptr %31, align 4, !tbaa !46
  br label %112

112:                                              ; preds = %98
  %113 = load i32, ptr %32, align 4, !tbaa !38
  %114 = add nsw i32 %113, 1
  store i32 %114, ptr %32, align 4, !tbaa !38
  br label %93, !llvm.loop !81

115:                                              ; preds = %97
  %116 = load float, ptr %31, align 4, !tbaa !46
  %117 = load ptr, ptr %27, align 8, !tbaa !44
  %118 = getelementptr inbounds nuw float, ptr %117, i32 1
  store ptr %118, ptr %27, align 8, !tbaa !44
  store float %116, ptr %117, align 4, !tbaa !46
  call void @llvm.lifetime.end.p0(i64 4, ptr %31) #9
  call void @llvm.lifetime.end.p0(i64 8, ptr %30) #9
  br label %119

119:                                              ; preds = %115
  %120 = load i32, ptr %28, align 4, !tbaa !38
  %121 = add nsw i32 %120, 1
  store i32 %121, ptr %28, align 4, !tbaa !38
  br label %81, !llvm.loop !82

122:                                              ; preds = %85
  call void @llvm.lifetime.end.p0(i64 8, ptr %27) #9
  call void @llvm.lifetime.end.p0(i64 8, ptr %26) #9
  br label %123

123:                                              ; preds = %122
  br label %124

124:                                              ; preds = %123
  %125 = load i32, ptr %17, align 4, !tbaa !38
  %126 = add nsw i32 %125, 1
  store i32 %126, ptr %17, align 4, !tbaa !38
  br label %60

127:                                              ; preds = %64
  br label %128

128:                                              ; preds = %127
  %129 = load ptr, ptr %9, align 8
  %130 = load i32, ptr %129, align 4, !tbaa !38
  call void @__kmpc_for_static_fini(ptr @1, i32 %130)
  call void @llvm.lifetime.end.p0(i64 4, ptr %25) #9
  call void @llvm.lifetime.end.p0(i64 4, ptr %24) #9
  call void @llvm.lifetime.end.p0(i64 4, ptr %23) #9
  call void @llvm.lifetime.end.p0(i64 4, ptr %22) #9
  call void @llvm.lifetime.end.p0(i64 4, ptr %21) #9
  br label %131

131:                                              ; preds = %128, %8
  call void @llvm.lifetime.end.p0(i64 4, ptr %19) #9
  call void @llvm.lifetime.end.p0(i64 4, ptr %18) #9
  call void @llvm.lifetime.end.p0(i64 4, ptr %17) #9
  ret void
}