; Function Attrs: alwaysinline norecurse nounwind uwtable
define internal void @_ZN4ncnnL13matmul_transbERKNS_3MatES2_RS0_RKNS_6OptionE.omp_outlined(ptr noalias noundef readonly captures(none) %0, ptr noalias readnone captures(none) %1, ptr noundef nonnull readonly align 4 captures(none) dereferenceable(4) %2, ptr noundef nonnull readonly align 8 captures(none) dereferenceable(8) %3, ptr noundef nonnull readonly align 4 captures(none) dereferenceable(4) %4, ptr noundef nonnull readonly align 8 captures(none) dereferenceable(8) %5, ptr noundef nonnull readonly align 4 captures(none) dereferenceable(4) %6, ptr noundef nonnull readonly align 8 captures(none) dereferenceable(8) %7) #7 {
  %9 = alloca i32, align 4
  %10 = alloca i32, align 4
  %11 = alloca i32, align 4
  %12 = alloca i32, align 4
  %13 = load i32, ptr %2, align 4, !tbaa !42
  %14 = icmp sgt i32 %13, 0
  br i1 %14, label %15, label %55

15:                                               ; preds = %8
  %16 = add nsw i32 %13, -1
  call void @llvm.lifetime.start.p0(i64 4, ptr nonnull %9) #8
  store i32 0, ptr %9, align 4, !tbaa !42
  call void @llvm.lifetime.start.p0(i64 4, ptr nonnull %10) #8
  store i32 %16, ptr %10, align 4, !tbaa !42
  call void @llvm.lifetime.start.p0(i64 4, ptr nonnull %11) #8
  store i32 1, ptr %11, align 4, !tbaa !42
  call void @llvm.lifetime.start.p0(i64 4, ptr nonnull %12) #8
  store i32 0, ptr %12, align 4, !tbaa !42
  %17 = load i32, ptr %0, align 4, !tbaa !42
  call void @__kmpc_for_static_init_4(ptr nonnull @1, i32 %17, i32 34, ptr nonnull %12, ptr nonnull %9, ptr nonnull %10, ptr nonnull %11, i32 1, i32 1)
  %18 = load i32, ptr %10, align 4, !tbaa !42
  %19 = call i32 @llvm.smin.i32(i32 %18, i32 %16)
  store i32 %19, ptr %10, align 4, !tbaa !42
  %20 = load i32, ptr %9, align 4, !tbaa !42
  %.not40 = icmp sgt i32 %20, %19
  br i1 %.not40, label %._crit_edge, label %.lr.ph

.lr.ph:                                           ; preds = %15
  %21 = load ptr, ptr %3, align 8, !tbaa !48
  %22 = load i32, ptr %4, align 4, !tbaa !42
  %23 = load ptr, ptr %5, align 8, !tbaa !48
  %24 = load i32, ptr %6, align 4, !tbaa !42
  %25 = icmp sgt i32 %24, 0
  %26 = load ptr, ptr %7, align 8
  br i1 %25, label %.lr.ph.split.us, label %._crit_edge

.lr.ph.split.us:                                  ; preds = %.lr.ph
  %27 = icmp sgt i32 %22, 0
  br i1 %27, label %.lr.ph38.us.us.preheader, label %.lr.ph38.us.preheader

.lr.ph38.us.preheader:                            ; preds = %.lr.ph.split.us
  %28 = zext nneg i32 %24 to i64
  %29 = shl nuw nsw i64 %28, 2
  %30 = add nsw i32 %19, 1
  %31 = sub i32 %30, %20
  br label %.lr.ph38.us

.lr.ph38.us.us.preheader:                         ; preds = %.lr.ph.split.us
  %32 = zext nneg i32 %22 to i64
  %33 = sext i32 %20 to i64
  %34 = zext nneg i32 %22 to i64
  %35 = zext nneg i32 %24 to i64
  %36 = add nsw i32 %19, 1
  %wide.trip.count53 = zext nneg i32 %24 to i64
  br label %.lr.ph38.us.us

.lr.ph38.us.us:                                   ; preds = %.lr.ph38.us.us.preheader, %._crit_edge39.split.us.us.us
  %indvars.iv55 = phi i64 [ %33, %.lr.ph38.us.us.preheader ], [ %indvars.iv.next56, %._crit_edge39.split.us.us.us ]
  %37 = mul nsw i64 %indvars.iv55, %34
  %38 = getelementptr inbounds float, ptr %21, i64 %37
  %39 = mul nsw i64 %indvars.iv55, %35
  %40 = getelementptr inbounds float, ptr %23, i64 %39
  br label %.lr.ph.us.us.us

.lr.ph.us.us.us:                                  ; preds = %._crit_edge.us.us.us, %.lr.ph38.us.us
  %indvars.iv50 = phi i64 [ %indvars.iv.next51, %._crit_edge.us.us.us ], [ 0, %.lr.ph38.us.us ]
  %.03235.us.us.us = phi ptr [ %50, %._crit_edge.us.us.us ], [ %40, %.lr.ph38.us.us ]
  %41 = mul nuw nsw i64 %indvars.iv50, %32
  %42 = getelementptr inbounds nuw float, ptr %26, i64 %41
  br label %43

43:                                               ; preds = %43, %.lr.ph.us.us.us
  %indvars.iv = phi i64 [ %indvars.iv.next, %43 ], [ 0, %.lr.ph.us.us.us ]
  %.02933.us.us.us = phi float [ %49, %43 ], [ 0.000000e+00, %.lr.ph.us.us.us ]
  %44 = getelementptr inbounds nuw float, ptr %38, i64 %indvars.iv
  %45 = load float, ptr %44, align 4, !tbaa !37
  %46 = getelementptr inbounds nuw float, ptr %42, i64 %indvars.iv
  %47 = load float, ptr %46, align 4, !tbaa !37
  %48 = fmul fast float %47, %45
  %49 = fadd fast float %48, %.02933.us.us.us
  %indvars.iv.next = add nuw nsw i64 %indvars.iv, 1
  %exitcond49.not = icmp eq i64 %indvars.iv.next, %32
  br i1 %exitcond49.not, label %._crit_edge.us.us.us, label %43, !llvm.loop !122

._crit_edge.us.us.us:                             ; preds = %43
  %50 = getelementptr inbounds nuw i8, ptr %.03235.us.us.us, i64 4
  store float %49, ptr %.03235.us.us.us, align 4, !tbaa !37
  %indvars.iv.next51 = add nuw nsw i64 %indvars.iv50, 1
  %exitcond54.not = icmp eq i64 %indvars.iv.next51, %wide.trip.count53
  br i1 %exitcond54.not, label %._crit_edge39.split.us.us.us, label %.lr.ph.us.us.us, !llvm.loop !123

._crit_edge39.split.us.us.us:                     ; preds = %._crit_edge.us.us.us
  %indvars.iv.next56 = add nsw i64 %indvars.iv55, 1
  %lftr.wideiv = trunc i64 %indvars.iv.next56 to i32
  %exitcond58.not = icmp eq i32 %36, %lftr.wideiv
  br i1 %exitcond58.not, label %._crit_edge, label %.lr.ph38.us.us

.lr.ph38.us:                                      ; preds = %.lr.ph38.us.preheader, %.lr.ph38.us
  %indvar = phi i32 [ 0, %.lr.ph38.us.preheader ], [ %indvar.next, %.lr.ph38.us ]
  %51 = add i32 %20, %indvar
  %52 = mul i32 %51, %24
  %53 = sext i32 %52 to i64
  %54 = shl nsw i64 %53, 2
  %scevgep = getelementptr i8, ptr %23, i64 %54
  call void @llvm.memset.p0.i64(ptr align 4 %scevgep, i8 0, i64 %29, i1 false), !tbaa !37
  %indvar.next = add i32 %indvar, 1
  %exitcond.not = icmp eq i32 %indvar.next, %31
  br i1 %exitcond.not, label %._crit_edge, label %.lr.ph38.us

._crit_edge:                                      ; preds = %.lr.ph38.us, %._crit_edge39.split.us.us.us, %.lr.ph, %15
  call void @__kmpc_for_static_fini(ptr nonnull @1, i32 %17)
  call void @llvm.lifetime.end.p0(i64 4, ptr nonnull %12) #8
  call void @llvm.lifetime.end.p0(i64 4, ptr nonnull %11) #8
  call void @llvm.lifetime.end.p0(i64 4, ptr nonnull %10) #8
  call void @llvm.lifetime.end.p0(i64 4, ptr nonnull %9) #8
  br label %55

55:                                               ; preds = %._crit_edge, %8
  ret void
}